; Function Attrs: nounwind uwtable
define void @_ZTvn24_n24_N5osgeo4proj3crs11GeodeticCRSD0Ev(ptr noundef %0) unnamed_addr #4 align 2 personality ptr @__gxx_personality_v0 {
  %2 = getelementptr inbounds i8, ptr %0, i64 -24
  %3 = load ptr, ptr %2, align 8
  %4 = getelementptr inbounds i8, ptr %3, i64 -24
  %5 = load i64, ptr %4, align 8
  %6 = getelementptr inbounds i8, ptr %2, i64 %5
  store ptr getelementptr inbounds inrange(-24, 64) ({ [11 x ptr], [15 x ptr], [5 x ptr], [5 x ptr], [5 x ptr] }, ptr @_ZTVN5osgeo4proj3crs11GeodeticCRSE, i64 0, i32 0, i64 3), ptr %6, align 8
  %7 = getelementptr inbounds i8, ptr %6, i64 16
  store ptr getelementptr inbounds inrange(-72, 48) ({ [11 x ptr], [15 x ptr], [5 x ptr], [5 x ptr], [5 x ptr] }, ptr @_ZTVN5osgeo4proj3crs11GeodeticCRSE, i64 0, i32 1, i64 9), ptr %7, align 8
  %8 = getelementptr i8, ptr %6, i64 32
  store ptr getelementptr inbounds inrange(-16, 24) ({ [11 x ptr], [15 x ptr], [5 x ptr], [5 x ptr], [5 x ptr] }, ptr @_ZTVN5osgeo4proj3crs11GeodeticCRSE, i64 0, i32 2, i64 2), ptr %8, align 8
  %9 = getelementptr i8, ptr %6, i64 40
  store ptr getelementptr inbounds inrange(-16, 24) ({ [11 x ptr], [15 x ptr], [5 x ptr], [5 x ptr], [5 x ptr] }, ptr @_ZTVN5osgeo4proj3crs11GeodeticCRSE, i64 0, i32 3, i64 2), ptr %9, align 8
  %10 = getelementptr i8, ptr %6, i64 64
  store ptr getelementptr inbounds inrange(-16, 24) ({ [11 x ptr], [15 x ptr], [5 x ptr], [5 x ptr], [5 x ptr] }, ptr @_ZTVN5osgeo4proj3crs11GeodeticCRSE, i64 0, i32 4, i64 2), ptr %10, align 8
  %11 = getelementptr inbounds i8, ptr %6, i64 8
  %12 = load ptr, ptr %11, align 8
  %.not.i.i.i.i = icmp eq ptr %12, null
  br i1 %.not.i.i.i.i, label %_ZN5osgeo4proj3crs11GeodeticCRSD0Ev.exit, label %_ZNKSt14default_deleteIN5osgeo4proj3crs11GeodeticCRS7PrivateEEclEPS4_.exit.i.i.i.i

_ZNKSt14default_deleteIN5osgeo4proj3crs11GeodeticCRS7PrivateEEclEPS4_.exit.i.i.i.i: ; preds = %1
  tail call void @_ZN5osgeo4proj3crs11GeodeticCRS7PrivateD2Ev(ptr noundef nonnull align 8 dereferenceable(40) %12) #37
  tail call void @_ZdlPv(ptr noundef nonnull %12) #36
  br label %_ZN5osgeo4proj3crs11GeodeticCRSD0Ev.exit

_ZN5osgeo4proj3crs11GeodeticCRSD0Ev.exit:         ; preds = %1, %_ZNKSt14default_deleteIN5osgeo4proj3crs11GeodeticCRS7PrivateEEclEPS4_.exit.i.i.i.i
  store ptr null, ptr %11, align 8
  tail call void @_ZN5osgeo4proj2io21IPROJStringExportableD2Ev(ptr noundef nonnull align 8 dereferenceable(8) %6) #37
  tail call void @_ZN5osgeo4proj3crs9SingleCRSD2Ev(ptr noundef nonnull align 8 dereferenceable(72) %7) #37
  tail call void @_ZdlPv(ptr noundef nonnull %6) #36
  ret void
}